(dp0
S'flag'
p1
(dp2
S'OTH'
p3
I0
sS'RSTR'
p4
I1
sS'S3'
p5
I2
sS'S2'
p6
I3
sS'S1'
p7
I4
sS'S0'
p8
I5
sS'RSTOS0'
p9
I6
sS'REJ'
p10
I7
sS'SH'
p11
I8
sS'RSTO'
p12
I9
sS'SF'
p13
I10
ssS'service'
p14
(dp15
S'domain'
p16
I0
sS'http_443'
p17
I46
sS'Z39_50'
p18
I2
sS'smtp'
p19
I3
sS'urp_i'
p20
I4
sS'private'
p21
I5
sS'echo'
p22
I6
sS'printer'
p23
I33
sS'red_i'
p24
I8
sS'eco_i'
p25
I9
sS'sunrpc'
p26
I10
sS'ftp_data'
p27
I11
sS'urh_i'
p28
I12
sS'pm_dump'
p29
I13
sS'pop_3'
p30
I14
sS'pop_2'
p31
I15
sS'systat'
p32
I16
sS'ftp'
p33
I17
sS'sql_net'
p34
I18
sS'whois'
p35
I19
sS'netbios_dgm'
p36
I21
sS'efs'
p37
I22
sS'remote_job'
p38
I23
sS'daytime'
p39
I24
sS'other'
p40
I25
sS'finger'
p41
I26
sS'ldap'
p42
I27
sS'netbios_ns'
p43
I28
sS'kshell'
p44
I29
sS'iso_tsap'
p45
I30
sS'ecr_i'
p46
I31
sS'nntp'
p47
I32
sS'shell'
p48
I7
sS'domain_u'
p49
I20
sS'uucp_path'
p50
I35
sS'courier'
p51
I36
sS'exec'
p52
I37
sS'time'
p53
I63
sS'netstat'
p54
I39
sS'telnet'
p55
I40
sS'gopher'
p56
I41
sS'rje'
p57
I42
sS'uucp'
p58
I43
sS'link'
p59
I44
sS'auth'
p60
I45
sS'netbios_ssn'
p61
I1
sS'csnet_ns'
p62
I47
sS'X11'
p63
I48
sS'IRC'
p64
I49
sS'tftp_u'
p65
I50
sS'login'
p66
I65
sS'supdup'
p67
I53
sS'name'
p68
I54
sS'nnsp'
p69
I55
sS'icmp'
p70
I52
sS'http'
p71
I34
sS'ntp_u'
p72
I57
sS'bgp'
p73
I58
sS'ctf'
p74
I59
sS'hostnames'
p75
I60
sS'klogin'
p76
I61
sS'vmnet'
p77
I62
sS'tim_i'
p78
I38
sS'discard'
p79
I64
sS'imap4'
p80
I51
sS'mtp'
p81
I56
sS'ssh'
p82
I66
ssS'protocol_type'
p83
(dp84
S'udp'
p85
I0
sS'icmp'
p86
I1
sS'tcp'
p87
I2
ssS'label'
p88
(dp89
S'dos'
p90
I1
sS'probe'
p91
I0
sS'u2r'
p92
I3
sS'r2l'
p93
I2
sS'normal'
p94
I4
ss.